target datalayout = "e-m:e-p270:32:32-p271:32:32-p272:64:64-i64:64-i128:128-f80:128-n8:16:32:64-S128"
target triple = "x86_64-pc-linux-gnu"

%struct.buf_t = type { i32, ptr, i32, i32, i8, i8 }

@.str = private unnamed_addr constant [41 x i8] c"%s: Buffer size limit exceeded (%u > %u)\00", align 1
@.str.1 = private unnamed_addr constant [7 x i8] c"pack.c\00", align 1
@__func__.init_buf = private unnamed_addr constant [9 x i8] c"init_buf\00", align 1

; Function Attrs: nounwind uwtable
define dso_local ptr @init_buf(i32 noundef %0) #0 {
  %2 = alloca i32, align 4
  %3 = alloca ptr, align 8
  store i32 %0, ptr %2, align 4
  call void @llvm.lifetime.start.p0(i64 8, ptr %3) #9
  %4 = load i32, ptr %2, align 4
  %5 = icmp ugt i32 %4, -65536
  br i1 %5, label %6, label %8

6:                                                ; preds = %1
  %7 = load i32, ptr %2, align 4
  call void (ptr, ...) @fatal_abort(ptr noundef @.str, ptr noundef @__func__.init_buf, i32 noundef %7, i32 noundef -65536) #10
  unreachable

8:                                                ; preds = %1
  %9 = load i32, ptr %2, align 4
  %10 = icmp ule i32 %9, 0
  br i1 %10, label %11, label %12

11:                                               ; preds = %8
  store i32 16384, ptr %2, align 4
  br label %12

12:                                               ; preds = %11, %8
  %13 = call ptr @slurm_xcalloc(i64 noundef 1, i64 noundef 32, i1 noundef zeroext true, i1 noundef zeroext false, ptr noundef @.str.1, i32 noundef 267, ptr noundef @__func__.init_buf)
  store ptr %13, ptr %3, align 8
  %14 = load ptr, ptr %3, align 8
  %15 = getelementptr inbounds nuw %struct.buf_t, ptr %14, i32 0, i32 0
  store i32 1112884549, ptr %15, align 8
  %16 = load i32, ptr %2, align 4
  %17 = load ptr, ptr %3, align 8
  %18 = getelementptr inbounds nuw %struct.buf_t, ptr %17, i32 0, i32 2
  store i32 %16, ptr %18, align 8
  %19 = load ptr, ptr %3, align 8
  %20 = getelementptr inbounds nuw %struct.buf_t, ptr %19, i32 0, i32 3
  store i32 0, ptr %20, align 4
  %21 = load i32, ptr %2, align 4
  %22 = zext i32 %21 to i64
  %23 = call ptr @slurm_xcalloc(i64 noundef 1, i64 noundef %22, i1 noundef zeroext true, i1 noundef zeroext false, ptr noundef @.str.1, i32 noundef 271, ptr noundef @__func__.init_buf)
  %24 = load ptr, ptr %3, align 8
  %25 = getelementptr inbounds nuw %struct.buf_t, ptr %24, i32 0, i32 1
  store ptr %23, ptr %25, align 8
  %26 = load ptr, ptr %3, align 8
  %27 = getelementptr inbounds nuw %struct.buf_t, ptr %26, i32 0, i32 4
  store i8 0, ptr %27, align 8
  %28 = load ptr, ptr %3, align 8
  %29 = getelementptr inbounds nuw %struct.buf_t, ptr %28, i32 0, i32 5
  store i8 0, ptr %29, align 1
  %30 = load ptr, ptr %3, align 8
  call void @llvm.lifetime.end.p0(i64 8, ptr %3) #9
  ret ptr %30
}