; Function Attrs: nounwind uwtable
define dso_local noundef ptr @init_buf(i32 noundef %0) #0 {
  %2 = icmp ugt i32 %0, -65536
  br i1 %2, label %3, label %4

3:                                                ; preds = %1
  tail call void (ptr, ...) @fatal_abort(ptr noundef nonnull @.str, ptr noundef nonnull @__func__.init_buf, i32 noundef %0, i32 noundef -65536) #15
  unreachable

4:                                                ; preds = %1
  %5 = icmp eq i32 %0, 0
  %spec.store.select = select i1 %5, i32 16384, i32 %0
  %6 = tail call ptr @slurm_xcalloc(i64 noundef 1, i64 noundef 32, i1 noundef zeroext true, i1 noundef zeroext false, ptr noundef nonnull @.str.1, i32 noundef 267, ptr noundef nonnull @__func__.init_buf) #14
  store i32 1112884549, ptr %6, align 8
  %7 = getelementptr inbounds nuw i8, ptr %6, i64 16
  store i32 %spec.store.select, ptr %7, align 8
  %8 = getelementptr inbounds nuw i8, ptr %6, i64 20
  store i32 0, ptr %8, align 4
  %9 = zext i32 %spec.store.select to i64
  %10 = tail call ptr @slurm_xcalloc(i64 noundef 1, i64 noundef %9, i1 noundef zeroext true, i1 noundef zeroext false, ptr noundef nonnull @.str.1, i32 noundef 271, ptr noundef nonnull @__func__.init_buf) #14
  %11 = getelementptr inbounds nuw i8, ptr %6, i64 8
  store ptr %10, ptr %11, align 8
  %12 = getelementptr inbounds nuw i8, ptr %6, i64 24
  store i8 0, ptr %12, align 8
  %13 = getelementptr inbounds nuw i8, ptr %6, i64 25
  store i8 0, ptr %13, align 1
  ret ptr %6
}